target datalayout = "e-m:e-p270:32:32-p271:32:32-p272:64:64-i64:64-i128:128-f80:128-n8:16:32:64-S128"
target triple = "x86_64-unknown-linux-gnu"

%"class.icu_75::FunctionReplacer" = type { %"class.icu_75::UnicodeFunctor", %"class.icu_75::UnicodeReplacer", ptr, ptr }
%"class.icu_75::UnicodeFunctor" = type { %"class.icu_75::UObject" }
%"class.icu_75::UObject" = type { ptr }
%"class.icu_75::UnicodeReplacer" = type { ptr }

@_ZTVN6icu_7514UnicodeFunctorE = external unnamed_addr constant { [9 x ptr] }, align 8
@_ZTVN6icu_757UObjectE = external unnamed_addr constant { [5 x ptr] }, align 8
@_ZTVN6icu_7515UnicodeReplacerE = external unnamed_addr constant { [7 x ptr] }, align 8

; Function Attrs: mustprogress nounwind uwtable
define linkonce_odr void @_ZN6icu_757UObjectC2ERKS0_(ptr noundef nonnull align 8 dereferenceable(8) %this, ptr noundef nonnull align 8 dereferenceable(8) %0) unnamed_addr #0 comdat align 2 {
entry:
  %this.addr = alloca ptr, align 8
  %.addr = alloca ptr, align 8
  store ptr %this, ptr %this.addr, align 8
  store ptr %0, ptr %.addr, align 8
  %this1 = load ptr, ptr %this.addr, align 8
  store ptr getelementptr inbounds ({ [5 x ptr] }, ptr @_ZTVN6icu_757UObjectE, i32 0, i32 0, i32 2), ptr %this1, align 8
  ret void
}

; Function Attrs: mustprogress nounwind uwtable
define linkonce_odr void @_ZN6icu_7515UnicodeReplacerC2ERKS0_(ptr noundef nonnull align 8 dereferenceable(8) %this, ptr noundef nonnull align 8 dereferenceable(8) %0) unnamed_addr #0 comdat align 2 {
entry:
  %this.addr = alloca ptr, align 8
  %.addr = alloca ptr, align 8
  store ptr %this, ptr %this.addr, align 8
  store ptr %0, ptr %.addr, align 8
  %this1 = load ptr, ptr %this.addr, align 8
  store ptr getelementptr inbounds ({ [7 x ptr] }, ptr @_ZTVN6icu_7515UnicodeReplacerE, i32 0, i32 0, i32 2), ptr %this1, align 8
  ret void
}

; Function Attrs: mustprogress nounwind uwtable
define linkonce_odr void @_ZN6icu_7514UnicodeFunctorC2ERKS0_(ptr noundef nonnull align 8 dereferenceable(8) %this, ptr noundef nonnull align 8 dereferenceable(8) %0) unnamed_addr #0 comdat align 2 {
entry:
  %this.addr = alloca ptr, align 8
  %.addr = alloca ptr, align 8
  store ptr %this, ptr %this.addr, align 8
  store ptr %0, ptr %.addr, align 8
  %this1 = load ptr, ptr %this.addr, align 8
  %1 = load ptr, ptr %.addr, align 8
  call void @_ZN6icu_757UObjectC2ERKS0_(ptr noundef nonnull align 8 dereferenceable(8) %this1, ptr noundef nonnull align 8 dereferenceable(8) %1) #6
  store ptr getelementptr inbounds ({ [9 x ptr] }, ptr @_ZTVN6icu_7514UnicodeFunctorE, i32 0, i32 0, i32 2), ptr %this1, align 8
  ret void
}

; Function Attrs: mustprogress uwtable
define void @_ZN6icu_7516FunctionReplacerC2ERKS0_(ptr noundef nonnull align 8 dereferenceable(32) %this, ptr noundef nonnull align 8 dereferenceable(32) %other) unnamed_addr #1 align 2 personality ptr @__gxx_personality_v0 {
entry:
  %this.addr = alloca ptr, align 8
  %other.addr = alloca ptr, align 8
  %exn.slot = alloca ptr, align 8
  %ehselector.slot = alloca i32, align 4
  store ptr %this, ptr %this.addr, align 8
  store ptr %other, ptr %other.addr, align 8
  %this1 = load ptr, ptr %this.addr, align 8
  %0 = load ptr, ptr %other.addr, align 8
  call void @_ZN6icu_7514UnicodeFunctorC2ERKS0_(ptr noundef nonnull align 8 dereferenceable(8) %this1, ptr noundef nonnull align 8 dereferenceable(8) %0) #6
  %1 = getelementptr inbounds i8, ptr %this1, i64 8
  %2 = load ptr, ptr %other.addr, align 8
  %add.ptr = getelementptr inbounds i8, ptr %2, i64 8
  call void @_ZN6icu_7515UnicodeReplacerC2ERKS0_(ptr noundef nonnull align 8 dereferenceable(8) %1, ptr noundef nonnull align 8 dereferenceable(8) %add.ptr) #6
  store ptr getelementptr inbounds ({ [12 x ptr], [7 x ptr] }, ptr @_ZTVN6icu_7516FunctionReplacerE, i32 0, i32 0, i32 2), ptr %this1, align 8
  %add.ptr2 = getelementptr inbounds i8, ptr %this1, i64 8
  store ptr getelementptr inbounds ({ [12 x ptr], [7 x ptr] }, ptr @_ZTVN6icu_7516FunctionReplacerE, i32 0, i32 1, i32 2), ptr %add.ptr2, align 8
  %3 = load ptr, ptr %other.addr, align 8
  %translit = getelementptr inbounds %"class.icu_75::FunctionReplacer", ptr %3, i32 0, i32 2
  %4 = load ptr, ptr %translit, align 8
  %vtable = load ptr, ptr %4, align 8
  %vfn = getelementptr inbounds ptr, ptr %vtable, i64 3
  %5 = load ptr, ptr %vfn, align 8
  %call = invoke noundef ptr %5(ptr noundef nonnull align 8 dereferenceable(84) %4)
          to label %invoke.cont unwind label %lpad

invoke.cont:                                      ; preds = %entry
  %translit3 = getelementptr inbounds %"class.icu_75::FunctionReplacer", ptr %this1, i32 0, i32 2
  store ptr %call, ptr %translit3, align 8
  %6 = load ptr, ptr %other.addr, align 8
  %replacer = getelementptr inbounds %"class.icu_75::FunctionReplacer", ptr %6, i32 0, i32 3
  %7 = load ptr, ptr %replacer, align 8
  %vtable4 = load ptr, ptr %7, align 8
  %vfn5 = getelementptr inbounds ptr, ptr %vtable4, i64 3
  %8 = load ptr, ptr %vfn5, align 8
  %call7 = invoke noundef ptr %8(ptr noundef nonnull align 8 dereferenceable(8) %7)
          to label %invoke.cont6 unwind label %lpad

invoke.cont6:                                     ; preds = %invoke.cont
  %replacer8 = getelementptr inbounds %"class.icu_75::FunctionReplacer", ptr %this1, i32 0, i32 3
  store ptr %call7, ptr %replacer8, align 8
  ret void

lpad:                                             ; preds = %invoke.cont, %entry
  %9 = landingpad { ptr, i32 }
          cleanup
  %10 = extractvalue { ptr, i32 } %9, 0
  store ptr %10, ptr %exn.slot, align 8
  %11 = extractvalue { ptr, i32 } %9, 1
  store i32 %11, ptr %ehselector.slot, align 4
  %12 = getelementptr inbounds i8, ptr %this1, i64 8
  call void @_ZN6icu_7515UnicodeReplacerD2Ev(ptr noundef nonnull align 8 dereferenceable(8) %12) #6
  call void @_ZN6icu_7514UnicodeFunctorD2Ev(ptr noundef nonnull align 8 dereferenceable(8) %this1) #6
  br label %eh.resume

eh.resume:                                        ; preds = %lpad
  %exn = load ptr, ptr %exn.slot, align 8
  %sel = load i32, ptr %ehselector.slot, align 4
  %lpad.val = insertvalue { ptr, i32 } poison, ptr %exn, 0
  %lpad.val9 = insertvalue { ptr, i32 } %lpad.val, i32 %sel, 1
  resume { ptr, i32 } %lpad.val9
}