; Function Attrs: mustprogress uwtable
define void @_ZN6icu_7516FunctionReplacerC2ERKS0_(ptr noundef nonnull align 8 dereferenceable(32) %this, ptr nocapture noundef nonnull readonly align 8 dereferenceable(32) %other) unnamed_addr #2 align 2 personality ptr @__gxx_personality_v0 {
entry:
  %0 = getelementptr inbounds i8, ptr %this, i64 8
  store ptr getelementptr inbounds ({ [12 x ptr], [7 x ptr] }, ptr @_ZTVN6icu_7516FunctionReplacerE, i64 0, i32 0, i64 2), ptr %this, align 8
  store ptr getelementptr inbounds ({ [12 x ptr], [7 x ptr] }, ptr @_ZTVN6icu_7516FunctionReplacerE, i64 0, i32 1, i64 2), ptr %0, align 8
  %translit = getelementptr inbounds i8, ptr %other, i64 16
  %1 = load ptr, ptr %translit, align 8
  %vtable = load ptr, ptr %1, align 8
  %vfn = getelementptr inbounds i8, ptr %vtable, i64 24
  %2 = load ptr, ptr %vfn, align 8
  %call = invoke noundef ptr %2(ptr noundef nonnull align 8 dereferenceable(84) %1)
          to label %invoke.cont unwind label %lpad

invoke.cont:                                      ; preds = %entry
  %translit3 = getelementptr inbounds i8, ptr %this, i64 16
  store ptr %call, ptr %translit3, align 8
  %replacer = getelementptr inbounds i8, ptr %other, i64 24
  %3 = load ptr, ptr %replacer, align 8
  %vtable4 = load ptr, ptr %3, align 8
  %vfn5 = getelementptr inbounds i8, ptr %vtable4, i64 24
  %4 = load ptr, ptr %vfn5, align 8
  %call7 = invoke noundef ptr %4(ptr noundef nonnull align 8 dereferenceable(8) %3)
          to label %invoke.cont6 unwind label %lpad

invoke.cont6:                                     ; preds = %invoke.cont
  %replacer8 = getelementptr inbounds i8, ptr %this, i64 24
  store ptr %call7, ptr %replacer8, align 8
  ret void

lpad:                                             ; preds = %invoke.cont, %entry
  %5 = landingpad { ptr, i32 }
          cleanup
  tail call void @_ZN6icu_7515UnicodeReplacerD2Ev(ptr noundef nonnull align 8 dereferenceable(8) %0) #9
  tail call void @_ZN6icu_7514UnicodeFunctorD2Ev(ptr noundef nonnull align 8 dereferenceable(8) %this) #9
  resume { ptr, i32 } %5
}